// Annotated Flatbuffer Binary
//
// Schema file: annotated_binary.fbs
// Binary file: annotated_binary.bin

header:
  +0x0000 | 3C 00 00 00             | UOffset32  | 0x0000003C (60) Loc: +0x003C       | offset to root table `AnnotatedBinary.Foo`
  +0x0004 | 41 4E 4E 4F             | char[4]    | ANNO                               | File Identifier

vtable (AnnotatedBinary.Foo):
  +0x0008 | 34 00                   | uint16_t   | 0x0034 (52)                        | size of this vtable
  +0x000A | 64 00                   | uint16_t   | 0x0064 (100)                       | size of referring table
  +0x000C | 0C 00                   | VOffset16  | 0x000C (12)                        | offset to field `counter` (id: 0)
  +0x000E | 07 00                   | VOffset16  | 0x0007 (7)                         | offset to field `healthy` (id: 1)
  +0x0010 | 00 00                   | VOffset16  | 0x0000 (0)                         | offset to field `level` (id: 2) <defaults to 99>
  +0x0012 | 08 00                   | VOffset16  | 0x0008 (8)                         | offset to field `meal` (id: 3)
  +0x0014 | 10 00                   | VOffset16  | 0x0010 (16)                        | offset to field `bar` (id: 4)
  +0x0016 | 14 00                   | VOffset16  | 0x0014 (20)                        | offset to field `home` (id: 5)
  +0x0018 | 30 00                   | VOffset16  | 0x0030 (48)                        | offset to field `name` (id: 6)
  +0x001A | 34 00                   | VOffset16  | 0x0034 (52)                        | offset to field `bars` (id: 7)
  +0x001C | 09 00                   | VOffset16  | 0x0009 (9)                         | offset to field `bar_baz_type` (id: 8)
  +0x001E | 38 00                   | VOffset16  | 0x0038 (56)                        | offset to field `bar_baz` (id: 9)
  +0x0020 | 3C 00                   | VOffset16  | 0x003C (60)                        | offset to field `accounts` (id: 10)
  +0x0022 | 40 00                   | VOffset16  | 0x0040 (64)                        | offset to field `bob` (id: 11)
  +0x0024 | 44 00                   | VOffset16  | 0x0044 (68)                        | offset to field `alice` (id: 12)
  +0x0026 | 00 00                   | VOffset16  | 0x0000 (0)                         | offset to field `maybe_i32` (id: 13) <defaults to 0>
  +0x0028 | 00 00                   | VOffset16  | 0x0000 (0)                         | offset to field `default_i32` (id: 14) <defaults to 42>
  +0x002A | 48 00                   | VOffset16  | 0x0048 (72)                        | offset to field `just_i32` (id: 15)
  +0x002C | 4C 00                   | VOffset16  | 0x004C (76)                        | offset to field `names` (id: 16)
  +0x002E | 50 00                   | VOffset16  | 0x0050 (80)                        | offset to field `points_of_interest` (id: 17)
  +0x0030 | 54 00                   | VOffset16  | 0x0054 (84)                        | offset to field `foobars_type` (id: 18)
  +0x0032 | 58 00                   | VOffset16  | 0x0058 (88)                        | offset to field `foobars` (id: 19)
  +0x0034 | 0A 00                   | VOffset16  | 0x000A (10)                        | offset to field `measurement_type` (id: 20)
  +0x0036 | 5C 00                   | VOffset16  | 0x005C (92)                        | offset to field `measurement` (id: 21)
  +0x0038 | 0B 00                   | VOffset16  | 0x000B (11)                        | offset to field `anything_type` (id: 22)
  +0x003A | 60 00                   | VOffset16  | 0x0060 (96)                        | offset to field `anything` (id: 23)

root_table (AnnotatedBinary.Foo):
  +0x003C | 34 00 00 00             | SOffset32  | 0x00000034 (52) Loc: +0x0008       | offset to vtable
  +0x0040 | 00 00 00                | uint8_t[3] | 0x000000 (0)                       | padding
  +0x0043 | 01                      | uint8_t    | 0x01 (1)                           | table field `healthy` (Bool)
  +0x0044 | 02                      | uint8_t    | 0x02 (2)                           | table field `meal` (Byte)
  +0x0045 | 02                      | uint8_t    | 0x02 (2)                           | table field `bar_baz_type` (UType)
  +0x0046 | 01                      | uint8_t    | 0x01 (1)                           | table field `measurement_type` (UType)
  +0x0047 | 01                      | uint8_t    | 0x01 (1)                           | table field `anything_type` (UType)
  +0x0048 | D2 04 00 00             | uint32_t   | 0x000004D2 (1234)                  | table field `counter` (Int)
  +0x004C | 18 02 00 00             | UOffset32  | 0x00000218 (536) Loc: +0x0264      | offset to field `bar`
  +0x0050 | 01 00 00 00             | uint32_t   | 0x00000001 (1)                     | struct field `AnnotatedBinary.Building.floors` (Int)
  +0x0054 | 02 00 00 00             | uint32_t   | 0x00000002 (2)                     | struct field `AnnotatedBinary.Building.doors` (Int)
  +0x0058 | 0C 00 00 00             | uint32_t   | 0x0000000C (12)                    | struct field `AnnotatedBinary.Building.windows` (Int)
  +0x005C | 0A 00 00 00             | uint32_t   | 0x0000000A (10)                    | array field `AnnotatedBinary.Dimension.values[0]` (Int)
  +0x0060 | 0C 00 00 00             | uint32_t   | 0x0000000C (12)                    | array field `AnnotatedBinary.Dimension.values[1]` (Int)
  +0x0064 | 14 00 00 00             | uint32_t   | 0x00000014 (20)                    | array field `AnnotatedBinary.Dimension.values[2]` (Int)
  +0x0068 | 01                      | uint8_t    | 0x01 (1)                           | struct field `AnnotatedBinary.Tolerance.width` (UByte)
  +0x0069 | 02                      | uint8_t    | 0x02 (2)                           | struct field `AnnotatedBinary.Tolerance.width` (UByte)
  +0x006A | 03                      | uint8_t    | 0x03 (3)                           | struct field `AnnotatedBinary.Tolerance.width` (UByte)
  +0x006B | 00                      | uint8_t[1] | 0x00 (0)                           | padding
  +0x006C | B8 01 00 00             | UOffset32  | 0x000001B8 (440) Loc: +0x0224      | offset to field `name`
  +0x0070 | 4C 01 00 00             | UOffset32  | 0x0000014C (332) Loc: +0x01BC      | offset to field `bars`
  +0x0074 | 40 01 00 00             | UOffset32  | 0x00000140 (320) Loc: +0x01B4      | offset to field `bar_baz` (union of type `Baz`)
  +0x0078 | 24 01 00 00             | UOffset32  | 0x00000124 (292) Loc: +0x019C      | offset to field `accounts`
  +0x007C | 14 01 00 00             | UOffset32  | 0x00000114 (276) Loc: +0x0190      | offset to field `bob`
  +0x0080 | 04 01 00 00             | UOffset32  | 0x00000104 (260) Loc: +0x0184      | offset to field `alice`
  +0x0084 | 0D 00 00 00             | uint32_t   | 0x0000000D (13)                    | table field `just_i32` (Int)
  +0x0088 | CC 00 00 00             | UOffset32  | 0x000000CC (204) Loc: +0x0154      | offset to field `names`
  +0x008C | 90 00 00 00             | UOffset32  | 0x00000090 (144) Loc: +0x011C      | offset to field `points_of_interest`
  +0x0090 | 84 00 00 00             | UOffset32  | 0x00000084 (132) Loc: +0x0114      | offset to field `foobars_type`
  +0x0094 | 28 00 00 00             | UOffset32  | 0x00000028 (40) Loc: +0x00BC       | offset to field `foobars`
  +0x0098 | 23 00 00 00             | UOffset32  | 0x00000023 (35) Loc: +0x00BB       | offset to field `measurement` (union of type `Tolerance`)
  +0x009C | 0C 00 00 00             | UOffset32  | 0x0000000C (12) Loc: +0x00A8       | offset to field `anything` (union of type `Bar`)
  +0x00BB | 05                      | uint8_t    | 0x05 (5)                           | struct field `AnnotatedBinary.Tolerance.width` (UByte)

vtable (AnnotatedBinary.Bar):
  +0x00A0 | 08 00                   | uint16_t   | 0x0008 (8)                         | size of this vtable
  +0x00A2 | 13 00                   | uint16_t   | 0x0013 (19)                        | size of referring table
  +0x00A4 | 08 00                   | VOffset16  | 0x0008 (8)                         | offset to field `a` (id: 0)
  +0x00A6 | 04 00                   | VOffset16  | 0x0004 (4)                         | offset to field `b` (id: 1)

table (AnnotatedBinary.Bar):
  +0x00A8 | 08 00 00 00             | SOffset32  | 0x00000008 (8) Loc: +0x00A0        | offset to vtable
  +0x00AC | 00 80 23 44             | float      | 0x44238000 (654.000000)            | table field `b` (Float)
  +0x00B0 | 00 00 00 00 00 10 74 40 | double     | 0x4074100000000000 (321.000000)    | table field `a` (Double)
  +0x00B8 | 00 00 00                | uint8_t[3] | 0x000000 (0)                       | padding

vector (AnnotatedBinary.Foo.foobars):
  +0x00BC | 03 00 00 00             | uint32_t   | 0x00000003 (3)                     | length of vector (# items)
  +0x00C0 | 34 00 00 00             | UOffset32  | 0x00000034 (52) Loc: +0x00F4       | offset to union[0] (`Bar`)
  +0x00C4 | 2C 00 00 00             | UOffset32  | 0x0000002C (44) Loc: +0x00F0       | offset to union[1] (`Baz`)
  +0x00C8 | 04 00 00 00             | UOffset32  | 0x00000004 (4) Loc: +0x00CC        | offset to union[2] (`Bar`)

table (AnnotatedBinary.Bar):
  +0x00CC | D2 FE FF FF             | SOffset32  | 0xFFFFFED2 (-302) Loc: +0x01FA     | offset to vtable
  +0x00D0 | 00 80 23 44             | float      | 0x44238000 (654.000000)            | table field `b` (Float)
  +0x00D4 | 10 00 00 00             | UOffset32  | 0x00000010 (16) Loc: +0x00E4       | offset to field `c`
  +0x00D8 | 00 00 00 00 00 D8 8E 40 | double     | 0x408ED80000000000 (987.000000)    | table field `a` (Double)
  +0x00E0 | 00 00 00 00             | uint8_t[4] | 0x00000000 (0)                     | padding

table (AnnotatedBinary.Baz):
  +0x00E4 | 6A FE FF FF             | SOffset32  | 0xFFFFFE6A (-406) Loc: +0x027A     | offset to vtable
  +0x00E8 | 00 00 00                | uint8_t[3] | 0x000000 (0)                       | padding
  +0x00EB | 03                      | uint8_t    | 0x03 (3)                           | table field `meal` (Byte)

vtable (AnnotatedBinary.Baz):
  +0x00EC | 04 00                   | uint16_t   | 0x0004 (4)                         | size of this vtable
  +0x00EE | 04 00                   | uint16_t   | 0x0004 (4)                         | size of referring table

table (AnnotatedBinary.Baz):
  +0x00F0 | 04 00 00 00             | SOffset32  | 0x00000004 (4) Loc: +0x00EC        | offset to vtable

table (AnnotatedBinary.Bar):
  +0x00F4 | FA FE FF FF             | SOffset32  | 0xFFFFFEFA (-262) Loc: +0x01FA     | offset to vtable
  +0x00F8 | 00 00 E4 43             | float      | 0x43E40000 (456.000000)            | table field `b` (Float)
  +0x00FC | 10 00 00 00             | UOffset32  | 0x00000010 (16) Loc: +0x010C       | offset to field `c`
  +0x0100 | 00 00 00 00 00 C0 5E 40 | double     | 0x405EC00000000000 (123.000000)    | table field `a` (Double)
  +0x0108 | 00 00 00 00             | uint8_t[4] | 0x00000000 (0)                     | padding

table (AnnotatedBinary.Baz):
  +0x010C | 92 FE FF FF             | SOffset32  | 0xFFFFFE92 (-366) Loc: +0x027A     | offset to vtable
  +0x0110 | 00 00 00                | uint8_t[3] | 0x000000 (0)                       | padding
  +0x0113 | 01                      | uint8_t    | 0x01 (1)                           | table field `meal` (Byte)

vector (AnnotatedBinary.Foo.foobars_type):
  +0x0114 | 03 00 00 00             | uint32_t   | 0x00000003 (3)                     | length of vector (# items)
  +0x0118 | 01                      | uint8_t    | 0x01 (1)                           | value[0]
  +0x0119 | 02                      | uint8_t    | 0x02 (2)                           | value[1]
  +0x011A | 01                      | uint8_t    | 0x01 (1)                           | value[2]

vector (AnnotatedBinary.Foo.points_of_interest):
  +0x011C | 03 00 00 00             | uint32_t   | 0x00000003 (3)                     | length of vector (# items)
  +0x0120 | 33 33 33 33 33 A3 45 40 | double     | 0x4045A33333333333 (43.275000)     | struct field `AnnotatedBinary.Location.latitude` (Double)
  +0x0128 | 7E 57 04 FF 5B 87 53 C0 | double     | 0xC053875BFF04577E (-78.114990)    | struct field `AnnotatedBinary.Location.longitude` (Double)
  +0x0130 | 8D F0 F6 20 04 B6 42 40 | double     | 0x4042B60420F6F08D (37.422001)     | struct field `AnnotatedBinary.Location.latitude` (Double)
  +0x0138 | 9F 77 63 41 61 85 5E C0 | double     | 0xC05E85614163779F (-122.084061)   | struct field `AnnotatedBinary.Location.longitude` (Double)
  +0x0140 | 8F 35 23 83 DC 35 4B C0 | double     | 0xC04B35DC8323358F (-54.420792)    | struct field `AnnotatedBinary.Location.latitude` (Double)
  +0x0148 | F6 97 DD 93 87 C5 0A 40 | double     | 0x400AC58793DD97F6 (3.346450)      | struct field `AnnotatedBinary.Location.longitude` (Double)
  +0x0150 | 00 00 00 00             | uint8_t[4] | 0x00000000 (0)                     | padding

vector (AnnotatedBinary.Foo.names):
  +0x0154 | 03 00 00 00             | uint32_t   | 0x00000003 (3)                     | length of vector (# items)
  +0x0158 | 20 00 00 00             | UOffset32  | 0x00000020 (32) Loc: +0x0178       | offset to string[0]
  +0x015C | 14 00 00 00             | UOffset32  | 0x00000014 (20) Loc: +0x0170       | offset to string[1]
  +0x0160 | 04 00 00 00             | UOffset32  | 0x00000004 (4) Loc: +0x0164        | offset to string[2]

string (AnnotatedBinary.Foo.names):
  +0x0164 | 07 00 00 00             | uint32_t   | 0x00000007 (7)                     | length of string
  +0x0168 | 63 68 61 72 6C 69 65    | char[7]    | charlie                            
  +0x016F | 00                      | char       | 0x00 (0)                           | string terminator

string (AnnotatedBinary.Foo.names):
  +0x0170 | 03 00 00 00             | uint32_t   | 0x00000003 (3)                     | length of string
  +0x0174 | 62 6F 62                | char[3]    | bob                                
  +0x0177 | 00                      | char       | 0x00 (0)                           | string terminator

string (AnnotatedBinary.Foo.names):
  +0x0178 | 05 00 00 00             | uint32_t   | 0x00000005 (5)                     | length of string
  +0x017C | 61 6C 69 63 65          | char[5]    | alice                              
  +0x0181 | 00                      | char       | 0x00 (0)                           | string terminator
  +0x0182 | 00 00                   | uint8_t[2] | 0x0000 (0)                         | padding

string (AnnotatedBinary.Foo.alice):
  +0x0184 | 07 00 00 00             | uint32_t   | 0x00000007 (7)                     | length of string
  +0x0188 | 63 68 61 72 6C 69 65    | char[7]    | charlie                            
  +0x018F | 00                      | char       | 0x00 (0)                           | string terminator

string (AnnotatedBinary.Foo.bob):
  +0x0190 | 07 00 00 00             | uint32_t   | 0x00000007 (7)                     | length of string
  +0x0194 | 63 68 61 72 6C 69 65    | char[7]    | charlie                            
  +0x019B | 00                      | char       | 0x00 (0)                           | string terminator

vector (AnnotatedBinary.Foo.accounts):
  +0x019C | 09 00 00 00             | uint32_t   | 0x00000009 (9)                     | length of vector (# items)
  +0x01A0 | 09 00                   | uint16_t   | 0x0009 (9)                         | value[0]
  +0x01A2 | 08 00                   | uint16_t   | 0x0008 (8)                         | value[1]
  +0x01A4 | 07 00                   | uint16_t   | 0x0007 (7)                         | value[2]
  +0x01A6 | 01 00                   | uint16_t   | 0x0001 (1)                         | value[3]
  +0x01A8 | 02 00                   | uint16_t   | 0x0002 (2)                         | value[4]
  +0x01AA | 03 00                   | uint16_t   | 0x0003 (3)                         | value[5]
  +0x01AC | 06 00                   | uint16_t   | 0x0006 (6)                         | value[6]
  +0x01AE | 05 00                   | uint16_t   | 0x0005 (5)                         | value[7]
  +0x01B0 | 04 00                   | uint16_t   | 0x0004 (4)                         | value[8]
  +0x01B2 | 00 00                   | uint8_t[2] | 0x0000 (0)                         | padding

table (AnnotatedBinary.Baz):
  +0x01B4 | 3A FF FF FF             | SOffset32  | 0xFFFFFF3A (-198) Loc: +0x027A     | offset to vtable
  +0x01B8 | 00 00 00                | uint8_t[3] | 0x000000 (0)                       | padding
  +0x01BB | 03                      | uint8_t    | 0x03 (3)                           | table field `meal` (Byte)

vector (AnnotatedBinary.Foo.bars):
  +0x01BC | 02 00 00 00             | uint32_t   | 0x00000002 (2)                     | length of vector (# items)
  +0x01C0 | 44 00 00 00             | UOffset32  | 0x00000044 (68) Loc: +0x0204       | offset to table[0]
  +0x01C4 | 10 00 00 00             | UOffset32  | 0x00000010 (16) Loc: +0x01D4       | offset to table[1]
  +0x01C8 | 00 00                   | uint8_t[2] | 0x0000 (0)                         | padding

vtable (AnnotatedBinary.Bar):
  +0x01CA | 0A 00                   | uint16_t   | 0x000A (10)                        | size of this vtable
  +0x01CC | 1A 00                   | uint16_t   | 0x001A (26)                        | size of referring table
  +0x01CE | 0C 00                   | VOffset16  | 0x000C (12)                        | offset to field `a` (id: 0)
  +0x01D0 | 04 00                   | VOffset16  | 0x0004 (4)                         | offset to field `b` (id: 1)
  +0x01D2 | 08 00                   | VOffset16  | 0x0008 (8)                         | offset to field `c` (id: 2)

table (AnnotatedBinary.Bar):
  +0x01D4 | 0A 00 00 00             | SOffset32  | 0x0000000A (10) Loc: +0x01CA       | offset to vtable
  +0x01D8 | 00 80 23 44             | float      | 0x44238000 (654.000000)            | table field `b` (Float)
  +0x01DC | 18 00 00 00             | UOffset32  | 0x00000018 (24) Loc: +0x01F4       | offset to field `c`
  +0x01E0 | 00 00 00 00 00 D8 8E 40 | double     | 0x408ED80000000000 (987.000000)    | table field `a` (Double)
  +0x01E8 | 00 00 00 00 00 00       | uint8_t[6] | 0x000000000000 (0)                 | padding

vtable (AnnotatedBinary.Baz):
  +0x01EE | 06 00                   | uint16_t   | 0x0006 (6)                         | size of this vtable
  +0x01F0 | 06 00                   | uint16_t   | 0x0006 (6)                         | size of referring table
  +0x01F2 | 05 00                   | VOffset16  | 0x0005 (5)                         | offset to field `meal` (id: 0)

table (AnnotatedBinary.Baz):
  +0x01F4 | 06 00 00 00             | SOffset32  | 0x00000006 (6) Loc: +0x01EE        | offset to vtable
  +0x01F8 | 00                      | uint8_t[1] | 0x00 (0)                           | padding
  +0x01F9 | 03                      | uint8_t    | 0x03 (3)                           | table field `meal` (Byte)

vtable (AnnotatedBinary.Bar):
  +0x01FA | 0A 00                   | uint16_t   | 0x000A (10)                        | size of this vtable
  +0x01FC | 18 00                   | uint16_t   | 0x0018 (24)                        | size of referring table
  +0x01FE | 0C 00                   | VOffset16  | 0x000C (12)                        | offset to field `a` (id: 0)
  +0x0200 | 04 00                   | VOffset16  | 0x0004 (4)                         | offset to field `b` (id: 1)
  +0x0202 | 08 00                   | VOffset16  | 0x0008 (8)                         | offset to field `c` (id: 2)

table (AnnotatedBinary.Bar):
  +0x0204 | 0A 00 00 00             | SOffset32  | 0x0000000A (10) Loc: +0x01FA       | offset to vtable
  +0x0208 | 00 00 E4 43             | float      | 0x43E40000 (456.000000)            | table field `b` (Float)
  +0x020C | 10 00 00 00             | UOffset32  | 0x00000010 (16) Loc: +0x021C       | offset to field `c`
  +0x0210 | 00 00 00 00 00 C0 5E 40 | double     | 0x405EC00000000000 (123.000000)    | table field `a` (Double)
  +0x0218 | 00 00 00 00             | uint8_t[4] | 0x00000000 (0)                     | padding

table (AnnotatedBinary.Baz):
  +0x021C | A2 FF FF FF             | SOffset32  | 0xFFFFFFA2 (-94) Loc: +0x027A      | offset to vtable
  +0x0220 | 00 00 00                | uint8_t[3] | 0x000000 (0)                       | padding
  +0x0223 | 01                      | uint8_t    | 0x01 (1)                           | table field `meal` (Byte)

string (AnnotatedBinary.Foo.name):
  +0x0224 | 2F 00 00 00             | uint32_t   | 0x0000002F (47)                    | length of string
  +0x0228 | 54 68 69 73 20 69 73 20 | char[47]   | This is                            
  +0x0230 | 61 20 6C 6F 6E 67 20 73 |            | a long s
  +0x0238 | 74 72 69 6E 67 20 74 6F |            | tring to
  +0x0240 | 20 73 68 6F 77 20 68 6F |            |  show ho
  +0x0248 | 77 20 69 74 20 62 72 65 |            | w it bre
  +0x0250 | 61 6B 73 20 75 70 2E    |            | aks up.
  +0x0257 | 00                      | char       | 0x00 (0)                           | string terminator
  +0x0258 | 00 00                   | uint8_t[2] | 0x0000 (0)                         | padding

vtable (AnnotatedBinary.Bar):
  +0x025A | 0A 00                   | uint16_t   | 0x000A (10)                        | size of this vtable
  +0x025C | 16 00                   | uint16_t   | 0x0016 (22)                        | size of referring table
  +0x025E | 0C 00                   | VOffset16  | 0x000C (12)                        | offset to field `a` (id: 0)
  +0x0260 | 04 00                   | VOffset16  | 0x0004 (4)                         | offset to field `b` (id: 1)
  +0x0262 | 08 00                   | VOffset16  | 0x0008 (8)                         | offset to field `c` (id: 2)

table (AnnotatedBinary.Bar):
  +0x0264 | 0A 00 00 00             | SOffset32  | 0x0000000A (10) Loc: +0x025A       | offset to vtable
  +0x0268 | 65 20 71 49             | float      | 0x49712065 (987654.312500)         | table field `b` (Float)
  +0x026C | 14 00 00 00             | UOffset32  | 0x00000014 (20) Loc: +0x0280       | offset to field `c`
  +0x0270 | C9 76 BE 9F 0C 24 FE 40 | double     | 0x40FE240C9FBE76C9 (123456.789000) | table field `a` (Double)
  +0x0278 | 00 00                   | uint8_t[2] | 0x0000 (0)                         | padding

vtable (AnnotatedBinary.Baz):
  +0x027A | 06 00                   | uint16_t   | 0x0006 (6)                         | size of this vtable
  +0x027C | 08 00                   | uint16_t   | 0x0008 (8)                         | size of referring table
  +0x027E | 07 00                   | VOffset16  | 0x0007 (7)                         | offset to field `meal` (id: 0)

table (AnnotatedBinary.Baz):
  +0x0280 | 06 00 00 00             | SOffset32  | 0x00000006 (6) Loc: +0x027A        | offset to vtable
  +0x0284 | 00 00 00                | uint8_t[3] | 0x000000 (0)                       | padding
  +0x0287 | 01                      | uint8_t    | 0x01 (1)                           | table field `meal` (Byte)
