// Annotated Flatbuffer Binary
//
// Schema file: annotated_binary.fbs
// Binary file: tests/invalid_vtable_size_short.bin

header:
  +0x0000 | 44 00 00 00             | UOffset32     | 0x00000044 (68) Loc: 0x0044 | offset to root table `AnnotatedBinary.Foo`
  +0x0004 | 41 4E 4E 4F             | char[4]       | ANNO                        | File Identifier

padding:
  +0x0008 | 00 00                   | uint8_t[2]    | ..                          | padding

vtable (AnnotatedBinary.Foo):
  +0x000A | 01 00                   | uint16_t      | 0x0001 (1)                  | ERROR: size of this vtable. Shorter than the minimum length: 

unknown (no known references):
  +0x000C | 68 00 0C 00 07 00 00 00 | ?uint8_t[660] | h.......                    | WARN: nothing refers to this section.
  +0x0014 | 08 00 10 00 14 00 30 00 |               | ......0.
  +0x001C | 34 00 09 00 38 00 3C 00 |               | 4...8.<.
  +0x0024 | 40 00 44 00 00 00 00 00 |               | @.D.....
  +0x002C | 48 00 4C 00 50 00 54 00 |               | H.L.P.T.
  +0x0034 | 58 00 0A 00 5C 00 0B 00 |               | X...\...
  +0x003C | 60 00 00 00 00 00 64 00 |               | `.....d.
  +0x0044 | 3A 00 00 00 00 00 00 01 |               | :.......
  +0x004C | 02 02 01 01 D2 04 00 00 |               | ........
  +0x0054 | 28 02 00 00 01 00 00 00 |               | (.......
  +0x005C | 02 00 00 00 0C 00 00 00 |               | ........
  +0x0064 | 0A 00 00 00 0C 00 00 00 |               | ........
  +0x006C | 14 00 00 00 01 02 03 00 |               | ........
  +0x0074 | C8 01 00 00 5C 01 00 00 |               | ....\...
  +0x007C | 50 01 00 00 34 01 00 00 |               | P...4...
  +0x0084 | 24 01 00 00 14 01 00 00 |               | $.......
  +0x008C | 0D 00 00 00 DC 00 00 00 |               | ........
  +0x0094 | A0 00 00 00 94 00 00 00 |               | ........
  +0x009C | 38 00 00 00 33 00 00 00 |               | 8...3...
  +0x00A4 | 1C 00 00 00 04 00 00 00 |               | ........
  +0x00AC | 05 00 00 00 61 6C 69 63 |               | ....alic
  +0x00B4 | 65 00 00 00 08 00 13 00 |               | e.......
  +0x00BC | 08 00 04 00 08 00 00 00 |               | ........
  +0x00C4 | 00 80 23 44 00 00 00 00 |               | ..#D....
  +0x00CC | 00 10 74 40 00 00 00 05 |               | ..t@....
  +0x00D4 | 03 00 00 00 34 00 00 00 |               | ....4...
  +0x00DC | 2C 00 00 00 04 00 00 00 |               | ,.......
  +0x00E4 | D2 FE FF FF 00 80 23 44 |               | ......#D
  +0x00EC | 10 00 00 00 00 00 00 00 |               | ........
  +0x00F4 | 00 D8 8E 40 00 00 00 00 |               | ...@....
  +0x00FC | 6A FE FF FF 00 00 00 03 |               | j.......
  +0x0104 | 04 00 04 00 04 00 00 00 |               | ........
  +0x010C | FA FE FF FF 00 00 E4 43 |               | .......C
  +0x0114 | 10 00 00 00 00 00 00 00 |               | ........
  +0x011C | 00 C0 5E 40 00 00 00 00 |               | ..^@....
  +0x0124 | 92 FE FF FF 00 00 00 01 |               | ........
  +0x012C | 03 00 00 00 01 02 01 00 |               | ........
  +0x0134 | 03 00 00 00 33 33 33 33 |               | ....3333
  +0x013C | 33 A3 45 40 7E 57 04 FF |               | 3.E@~W..
  +0x0144 | 5B 87 53 C0 8D F0 F6 20 |               | [.S.... 
  +0x014C | 04 B6 42 40 9F 77 63 41 |               | ..B@.wcA
  +0x0154 | 61 85 5E C0 8F 35 23 83 |               | a.^..5#.
  +0x015C | DC 35 4B C0 F6 97 DD 93 |               | .5K.....
  +0x0164 | 87 C5 0A 40 00 00 00 00 |               | ...@....
  +0x016C | 03 00 00 00 20 00 00 00 |               | .... ...
  +0x0174 | 14 00 00 00 04 00 00 00 |               | ........
  +0x017C | 07 00 00 00 63 68 61 72 |               | ....char
  +0x0184 | 6C 69 65 00 03 00 00 00 |               | lie.....
  +0x018C | 62 6F 62 00 05 00 00 00 |               | bob.....
  +0x0194 | 61 6C 69 63 65 00 00 00 |               | alice...
  +0x019C | 07 00 00 00 63 68 61 72 |               | ....char
  +0x01A4 | 6C 69 65 00 07 00 00 00 |               | lie.....
  +0x01AC | 63 68 61 72 6C 69 65 00 |               | charlie.
  +0x01B4 | 09 00 00 00 09 00 08 00 |               | ........
  +0x01BC | 07 00 01 00 02 00 03 00 |               | ........
  +0x01C4 | 06 00 05 00 04 00 00 00 |               | ........
  +0x01CC | 3A FF FF FF 00 00 00 03 |               | :.......
  +0x01D4 | 02 00 00 00 44 00 00 00 |               | ....D...
  +0x01DC | 10 00 00 00 00 00 0A 00 |               | ........
  +0x01E4 | 1A 00 0C 00 04 00 08 00 |               | ........
  +0x01EC | 0A 00 00 00 00 80 23 44 |               | ......#D
  +0x01F4 | 18 00 00 00 00 00 00 00 |               | ........
  +0x01FC | 00 D8 8E 40 00 00 00 00 |               | ...@....
  +0x0204 | 00 00 06 00 06 00 05 00 |               | ........
  +0x020C | 06 00 00 00 00 03 0A 00 |               | ........
  +0x0214 | 18 00 0C 00 04 00 08 00 |               | ........
  +0x021C | 0A 00 00 00 00 00 E4 43 |               | .......C
  +0x0224 | 10 00 00 00 00 00 00 00 |               | ........
  +0x022C | 00 C0 5E 40 00 00 00 00 |               | ..^@....
  +0x0234 | A2 FF FF FF 00 00 00 01 |               | ........
  +0x023C | 2F 00 00 00 54 68 69 73 |               | /...This
  +0x0244 | 20 69 73 20 61 20 6C 6F |               |  is a lo
  +0x024C | 6E 67 20 73 74 72 69 6E |               | ng strin
  +0x0254 | 67 20 74 6F 20 73 68 6F |               | g to sho
  +0x025C | 77 20 68 6F 77 20 69 74 |               | w how it
  +0x0264 | 20 62 72 65 61 6B 73 20 |               |  breaks 
  +0x026C | 75 70 2E 00 00 00 0A 00 |               | up......
  +0x0274 | 16 00 0C 00 04 00 08 00 |               | ........
  +0x027C | 0A 00 00 00 65 20 71 49 |               | ....e qI
  +0x0284 | 14 00 00 00 C9 76 BE 9F |               | .....v..
  +0x028C | 0C 24 FE 40 00 00 06 00 |               | .$.@....
  +0x0294 | 08 00 07 00 06 00 00 00 |               | ........
  +0x029C | 00 00 00 01             |               | ....
