// Annotated Flatbuffer Binary
//
// Schema file: annotated_binary.fbs
// Binary file: tests/invalid_vector_structs_cut_short.bin

header:
  +0x0000 | 44 00 00 00             | UOffset32    | 0x00000044 (68) Loc: 0x0044   | offset to root table `AnnotatedBinary.Foo`
  +0x0004 | 41 4E 4E 4F             | char[4]      | ANNO                          | File Identifier

padding:
  +0x0008 | 00 00                   | uint8_t[2]   | ..                            | padding

vtable (AnnotatedBinary.Foo):
  +0x000A | 3A 00                   | uint16_t     | 0x003A (58)                   | size of this vtable
  +0x000C | 68 00                   | uint16_t     | 0x0068 (104)                  | size of referring table
  +0x000E | 0C 00                   | VOffset16    | 0x000C (12)                   | offset to field `counter` (id: 0)
  +0x0010 | 07 00                   | VOffset16    | 0x0007 (7)                    | offset to field `healthy` (id: 1)
  +0x0012 | 00 00                   | VOffset16    | 0x0000 (0)                    | offset to field `level` (id: 2) <defaults to 99> (Long)
  +0x0014 | 08 00                   | VOffset16    | 0x0008 (8)                    | offset to field `meal` (id: 3)
  +0x0016 | 10 00                   | VOffset16    | 0x0010 (16)                   | offset to field `bar` (id: 4)
  +0x0018 | 14 00                   | VOffset16    | 0x0014 (20)                   | offset to field `home` (id: 5)
  +0x001A | 30 00                   | VOffset16    | 0x0030 (48)                   | offset to field `name` (id: 6)
  +0x001C | 34 00                   | VOffset16    | 0x0034 (52)                   | offset to field `bars` (id: 7)
  +0x001E | 09 00                   | VOffset16    | 0x0009 (9)                    | offset to field `bar_baz_type` (id: 8)
  +0x0020 | 38 00                   | VOffset16    | 0x0038 (56)                   | offset to field `bar_baz` (id: 9)
  +0x0022 | 3C 00                   | VOffset16    | 0x003C (60)                   | offset to field `accounts` (id: 10)
  +0x0024 | 40 00                   | VOffset16    | 0x0040 (64)                   | offset to field `bob` (id: 11)
  +0x0026 | 44 00                   | VOffset16    | 0x0044 (68)                   | offset to field `alice` (id: 12)
  +0x0028 | 00 00                   | VOffset16    | 0x0000 (0)                    | offset to field `maybe_i32` (id: 13) <defaults to 0> (Int)
  +0x002A | 00 00                   | VOffset16    | 0x0000 (0)                    | offset to field `default_i32` (id: 14) <defaults to 42> (Int)
  +0x002C | 48 00                   | VOffset16    | 0x0048 (72)                   | offset to field `just_i32` (id: 15)
  +0x002E | 4C 00                   | VOffset16    | 0x004C (76)                   | offset to field `names` (id: 16)
  +0x0030 | 50 00                   | VOffset16    | 0x0050 (80)                   | offset to field `points_of_interest` (id: 17)
  +0x0032 | 54 00                   | VOffset16    | 0x0054 (84)                   | offset to field `foobars_type` (id: 18)
  +0x0034 | 58 00                   | VOffset16    | 0x0058 (88)                   | offset to field `foobars` (id: 19)
  +0x0036 | 0A 00                   | VOffset16    | 0x000A (10)                   | offset to field `measurement_type` (id: 20)
  +0x0038 | 5C 00                   | VOffset16    | 0x005C (92)                   | offset to field `measurement` (id: 21)
  +0x003A | 0B 00                   | VOffset16    | 0x000B (11)                   | offset to field `anything_type` (id: 22)
  +0x003C | 60 00                   | VOffset16    | 0x0060 (96)                   | offset to field `anything` (id: 23)
  +0x003E | 00 00                   | VOffset16    | 0x0000 (0)                    | offset to field `temperature` (id: 24) <defaults to 98.600000> (Float)
  +0x0040 | 00 00                   | VOffset16    | 0x0000 (0)                    | offset to field `teetotaler` (id: 25) <null> (Obj)
  +0x0042 | 64 00                   | VOffset16    | 0x0064 (100)                  | offset to field `charlie` (id: 26)

root_table (AnnotatedBinary.Foo):
  +0x0044 | 3A 00 00 00             | SOffset32    | 0x0000003A (58) Loc: 0x000A   | offset to vtable
  +0x0048 | 00 00 00                | uint8_t[3]   | ...                           | padding
  +0x004B | 01                      | uint8_t      | 0x01 (1)                      | table field `healthy` (Bool)
  +0x004C | 02                      | uint8_t      | 0x02 (2)                      | table field `meal` (Byte)
  +0x004D | 02                      | UType8       | 0x02 (2)                      | table field `bar_baz_type` (UType)
  +0x004E | 01                      | UType8       | 0x01 (1)                      | table field `measurement_type` (UType)
  +0x004F | 01                      | UType8       | 0x01 (1)                      | table field `anything_type` (UType)
  +0x0050 | D2 04 00 00             | uint32_t     | 0x000004D2 (1234)             | table field `counter` (Int)
  +0x0054 | 28 02 00 00             | UOffset32    | 0x00000228 (552) Loc: 0x027C  | ERROR: offset to field `bar`. Invalid offset, points outside the binary.
  +0x0058 | 01 00 00 00             | uint32_t     | 0x00000001 (1)                | struct field `home.floors` of 'AnnotatedBinary.Building' (Int)
  +0x005C | 02 00 00 00             | uint32_t     | 0x00000002 (2)                | struct field `home.doors` of 'AnnotatedBinary.Building' (Int)
  +0x0060 | 0C 00 00 00             | uint32_t     | 0x0000000C (12)               | struct field `home.windows` of 'AnnotatedBinary.Building' (Int)
  +0x0064 | 0A 00 00 00             | uint32_t     | 0x0000000A (10)               | array field `home.dimensions.values`[0] of 'AnnotatedBinary.Dimension' (Int)
  +0x0068 | 0C 00 00 00             | uint32_t     | 0x0000000C (12)               | array field `home.dimensions.values`[1] of 'AnnotatedBinary.Dimension' (Int)
  +0x006C | 14 00 00 00             | uint32_t     | 0x00000014 (20)               | array field `home.dimensions.values`[2] of 'AnnotatedBinary.Dimension' (Int)
  +0x0070 | 01                      | uint8_t      | 0x01 (1)                      | struct field `home.dimensions.tolerances.width` of 'AnnotatedBinary.Tolerance' (UByte)
  +0x0071 | 02                      | uint8_t      | 0x02 (2)                      | struct field `home.dimensions.tolerances.width` of 'AnnotatedBinary.Tolerance' (UByte)
  +0x0072 | 03                      | uint8_t      | 0x03 (3)                      | struct field `home.dimensions.tolerances.width` of 'AnnotatedBinary.Tolerance' (UByte)
  +0x0073 | 00                      | uint8_t[1]   | .                             | padding
  +0x0074 | C8 01 00 00             | UOffset32    | 0x000001C8 (456) Loc: 0x023C  | ERROR: offset to field `name`. Invalid offset, points outside the binary.
  +0x0078 | 5C 01 00 00             | UOffset32    | 0x0000015C (348) Loc: 0x01D4  | ERROR: offset to field `bars`. Invalid offset, points outside the binary.
  +0x007C | 50 01 00 00             | UOffset32    | 0x00000150 (336) Loc: 0x01CC  | ERROR: offset to field `bar_baz`. Invalid offset, points outside the binary.
  +0x0080 | 34 01 00 00             | UOffset32    | 0x00000134 (308) Loc: 0x01B4  | ERROR: offset to field `accounts`. Invalid offset, points outside the binary.
  +0x0084 | 24 01 00 00             | UOffset32    | 0x00000124 (292) Loc: 0x01A8  | ERROR: offset to field `bob`. Invalid offset, points outside the binary.
  +0x0088 | 14 01 00 00             | UOffset32    | 0x00000114 (276) Loc: 0x019C  | ERROR: offset to field `alice`. Invalid offset, points outside the binary.
  +0x008C | 0D 00 00 00             | uint32_t     | 0x0000000D (13)               | table field `just_i32` (Int)
  +0x0090 | DC 00 00 00             | UOffset32    | 0x000000DC (220) Loc: 0x016C  | ERROR: offset to field `names`. Invalid offset, points outside the binary.
  +0x0094 | A0 00 00 00             | UOffset32    | 0x000000A0 (160) Loc: 0x0134  | offset to field `points_of_interest` (vector)
  +0x0098 | 94 00 00 00             | UOffset32    | 0x00000094 (148) Loc: 0x012C  | offset to field `foobars_type` (vector)
  +0x009C | 38 00 00 00             | UOffset32    | 0x00000038 (56) Loc: 0x00D4   | offset to field `foobars` (vector)
  +0x00A0 | 33 00 00 00             | UOffset32    | 0x00000033 (51) Loc: 0x00D3   | offset to field `measurement` (union of type `Tolerance`)
  +0x00A4 | 1C 00 00 00             | UOffset32    | 0x0000001C (28) Loc: 0x00C0   | offset to field `anything` (union of type `Bar`)
  +0x00A8 | 04 00 00 00             | UOffset32    | 0x00000004 (4) Loc: 0x00AC    | offset to field `charlie` (string)

string (AnnotatedBinary.Foo.charlie):
  +0x00AC | 05 00 00 00             | uint32_t     | 0x00000005 (5)                | length of string
  +0x00B0 | 61 6C 69 63 65          | char[5]      | alice                         | string literal
  +0x00B5 | 00                      | char         | 0x00 (0)                      | string terminator

padding:
  +0x00B6 | 00 00                   | uint8_t[2]   | ..                            | padding

vtable (AnnotatedBinary.Bar):
  +0x00B8 | 08 00                   | uint16_t     | 0x0008 (8)                    | size of this vtable
  +0x00BA | 13 00                   | uint16_t     | 0x0013 (19)                   | size of referring table
  +0x00BC | 08 00                   | VOffset16    | 0x0008 (8)                    | offset to field `a` (id: 0)
  +0x00BE | 04 00                   | VOffset16    | 0x0004 (4)                    | offset to field `b` (id: 1)

table (AnnotatedBinary.Bar):
  +0x00C0 | 08 00 00 00             | SOffset32    | 0x00000008 (8) Loc: 0x00B8    | offset to vtable
  +0x00C4 | 00 80 23 44             | float        | 0x44238000 (654)              | table field `b` (Float)
  +0x00C8 | 00 00 00 00 00 10 74 40 | double       | 0x4074100000000000 (321)      | table field `a` (Double)
  +0x00D0 | 00 00 00                | uint8_t[3]   | ...                           | padding

union (AnnotatedBinary.Tolerance.measurement):
  +0x00D3 | 05                      | uint8_t      | 0x05 (5)                      | struct field `measurement.width` of 'AnnotatedBinary.Tolerance' (UByte)

vector (AnnotatedBinary.Foo.foobars):
  +0x00D4 | 03 00 00 00             | uint32_t     | 0x00000003 (3)                | length of vector (# items)
  +0x00D8 | 34 00 00 00             | UOffset32    | 0x00000034 (52) Loc: 0x010C   | offset to union[0] (`Bar`)
  +0x00DC | 2C 00 00 00             | UOffset32    | 0x0000002C (44) Loc: 0x0108   | offset to union[1] (`Baz`)
  +0x00E0 | 04 00 00 00             | UOffset32    | 0x00000004 (4) Loc: 0x00E4    | offset to union[2] (`Bar`)

table (AnnotatedBinary.Bar):
  +0x00E4 | D2 FE FF FF             | SOffset32    | 0xFFFFFED2 (-302) Loc: 0x0212 | ERROR: offset to vtable. Invalid offset, points outside the binary.

unknown (no known references):
  +0x00E8 | 00 80 23 44 10 00 00 00 | ?uint8_t[28] | ..#D....                      | WARN: nothing refers to this section.
  +0x00F0 | 00 00 00 00 00 D8 8E 40 |              | .......@
  +0x00F8 | 00 00 00 00 6A FE FF FF |              | ....j...
  +0x0100 | 00 00 00 03             |              | ....

vtable (AnnotatedBinary.Baz):
  +0x0104 | 04 00                   | uint16_t     | 0x0004 (4)                    | size of this vtable
  +0x0106 | 04 00                   | uint16_t     | 0x0004 (4)                    | size of referring table

table (AnnotatedBinary.Baz):
  +0x0108 | 04 00 00 00             | SOffset32    | 0x00000004 (4) Loc: 0x0104    | offset to vtable

table (AnnotatedBinary.Bar):
  +0x010C | FA FE FF FF             | SOffset32    | 0xFFFFFEFA (-262) Loc: 0x0212 | ERROR: offset to vtable. Invalid offset, points outside the binary.

unknown (no known references):
  +0x0110 | 00 00 E4 43 10 00 00 00 | ?uint8_t[28] | ...C....                      | WARN: nothing refers to this section.
  +0x0118 | 00 00 00 00 00 C0 5E 40 |              | ......^@
  +0x0120 | 00 00 00 00 92 FE FF FF |              | ........
  +0x0128 | 00 00 00 01             |              | ....

vector (AnnotatedBinary.Foo.foobars_type):
  +0x012C | 03 00 00 00             | uint32_t     | 0x00000003 (3)                | length of vector (# items)
  +0x0130 | 01                      | UType8       | 0x01 (1)                      | value[0]
  +0x0131 | 02                      | UType8       | 0x02 (2)                      | value[1]
  +0x0132 | 01                      | UType8       | 0x01 (1)                      | value[2]

vector (AnnotatedBinary.Foo.points_of_interest):
  +0x0134 | 03 00 00 00             | uint32_t     | 0x00000003 (3)                | ERROR: length of vector (# items). Longer than the binary.

unknown (no known references):
  +0x0138 | 33 33 33 33 33 A3 45 40 | ?uint8_t[28] | 33333.E@                      | WARN: nothing refers to this section.
  +0x0140 | 7E 57 04 FF 5B 87 53 C0 |              | ~W..[.S.
  +0x0148 | 8D F0 F6 20 04 B6 42 40 |              | ... ..B@
  +0x0150 | 9F 77 63 41             |              | .wcA
