// Annotated Flatbuffer Binary
//
// Schema file: tests/64bit/test_64bit.fbs
// Binary file: tests/64bit/offset64_test_cpp.bin

header:
  +0x0000 | 14 00 00 00             | UOffset32  | 0x00000014 (20) Loc: 0x0014          | offset to root table `RootTable`

padding:
  +0x0004 | 00 00 00 00             | uint8_t[4] | ....                                 | padding

vtable (RootTable):
  +0x0008 | 0C 00                   | uint16_t   | 0x000C (12)                          | size of this vtable
  +0x000A | 1C 00                   | uint16_t   | 0x001C (28)                          | size of referring table
  +0x000C | 14 00                   | VOffset16  | 0x0014 (20)                          | offset to field `far_vector` (id: 0)
  +0x000E | 00 00                   | VOffset16  | 0x0000 (0)                           | offset to field `a` (id: 1) <defaults to 0> (Int)
  +0x0010 | 0C 00                   | VOffset16  | 0x000C (12)                          | offset to field `far_string` (id: 2)
  +0x0012 | 04 00                   | VOffset16  | 0x0004 (4)                           | offset to field `big_vector` (id: 3)

root_table (RootTable):
  +0x0014 | 0C 00 00 00             | SOffset32  | 0x0000000C (12) Loc: 0x0008          | offset to vtable
  +0x0018 | 18 00 00 00 00 00 00 00 | UOffset64  | 0x0000000000000018 (24) Loc: 0x0030  | offset to field `big_vector` (vector64)
  +0x0020 | E4 00 00 00 00 00 00 00 | UOffset64  | 0x00000000000000E4 (228) Loc: 0x0104 | offset to field `far_string` (string)
  +0x0028 | F0 00 00 00 00 00 00 00 | UOffset64  | 0x00000000000000F0 (240) Loc: 0x0118 | offset to field `far_vector` (vector)

vector64 (RootTable.big_vector):
  +0x0030 | C8 00 00 00 00 00 00 00 | uint64_t   | 0x00000000000000C8 (200)             | length of vector (# items)
  +0x0038 | 00                      | uint8_t    | 0x00 (0)                             | value[0]
  +0x0039 | 00                      | uint8_t    | 0x00 (0)                             | value[1]
  +0x003A | 00                      | uint8_t    | 0x00 (0)                             | value[2]
  +0x003B | 00                      | uint8_t    | 0x00 (0)                             | value[3]
  +0x003C | 00                      | uint8_t    | 0x00 (0)                             | value[4]
  +0x003D | 00                      | uint8_t    | 0x00 (0)                             | value[5]
  +0x003E | 00                      | uint8_t    | 0x00 (0)                             | value[6]
  +0x003F | 00                      | uint8_t    | 0x00 (0)                             | value[7]
  +0x0040 | 00                      | uint8_t    | 0x00 (0)                             | value[8]
  +0x0041 | 00                      | uint8_t    | 0x00 (0)                             | value[9]
  +0x0042 | 00                      | uint8_t    | 0x00 (0)                             | value[10]
  +0x0043 | 00                      | uint8_t    | 0x00 (0)                             | value[11]
  +0x0044 | 00                      | uint8_t    | 0x00 (0)                             | value[12]
  +0x0045 | 00                      | uint8_t    | 0x00 (0)                             | value[13]
  +0x0046 | 00                      | uint8_t    | 0x00 (0)                             | value[14]
  +0x0047 | 00                      | uint8_t    | 0x00 (0)                             | value[15]
  +0x0048 | 00                      | uint8_t    | 0x00 (0)                             | value[16]
  +0x0049 | 00                      | uint8_t    | 0x00 (0)                             | value[17]
  +0x004A | 00                      | uint8_t    | 0x00 (0)                             | value[18]
  +0x004B | 00                      | uint8_t    | 0x00 (0)                             | value[19]
  +0x004C | 00                      | uint8_t    | 0x00 (0)                             | value[20]
  +0x004D | 00                      | uint8_t    | 0x00 (0)                             | value[21]
  +0x004E | 00                      | uint8_t    | 0x00 (0)                             | value[22]
  +0x004F | 00                      | uint8_t    | 0x00 (0)                             | value[23]
  +0x0050 | 00                      | uint8_t    | 0x00 (0)                             | value[24]
  +0x0051 | 00                      | uint8_t    | 0x00 (0)                             | value[25]
  +0x0052 | 00                      | uint8_t    | 0x00 (0)                             | value[26]
  +0x0053 | 00                      | uint8_t    | 0x00 (0)                             | value[27]
  +0x0054 | 00                      | uint8_t    | 0x00 (0)                             | value[28]
  +0x0055 | 00                      | uint8_t    | 0x00 (0)                             | value[29]
  +0x0056 | 00                      | uint8_t    | 0x00 (0)                             | value[30]
  +0x0057 | 00                      | uint8_t    | 0x00 (0)                             | value[31]
  +0x0058 | 00                      | uint8_t    | 0x00 (0)                             | value[32]
  +0x0059 | 00                      | uint8_t    | 0x00 (0)                             | value[33]
  +0x005A | 00                      | uint8_t    | 0x00 (0)                             | value[34]
  +0x005B | 00                      | uint8_t    | 0x00 (0)                             | value[35]
  +0x005C | 00                      | uint8_t    | 0x00 (0)                             | value[36]
  +0x005D | 00                      | uint8_t    | 0x00 (0)                             | value[37]
  +0x005E | 00                      | uint8_t    | 0x00 (0)                             | value[38]
  +0x005F | 00                      | uint8_t    | 0x00 (0)                             | value[39]
  +0x0060 | 00                      | uint8_t    | 0x00 (0)                             | value[40]
  +0x0061 | 00                      | uint8_t    | 0x00 (0)                             | value[41]
  +0x0062 | 00                      | uint8_t    | 0x00 (0)                             | value[42]
  +0x0063 | 00                      | uint8_t    | 0x00 (0)                             | value[43]
  +0x0064 | 00                      | uint8_t    | 0x00 (0)                             | value[44]
  +0x0065 | 00                      | uint8_t    | 0x00 (0)                             | value[45]
  +0x0066 | 00                      | uint8_t    | 0x00 (0)                             | value[46]
  +0x0067 | 00                      | uint8_t    | 0x00 (0)                             | value[47]
  +0x0068 | 00                      | uint8_t    | 0x00 (0)                             | value[48]
  +0x0069 | 00                      | uint8_t    | 0x00 (0)                             | value[49]
  +0x006A | 00                      | uint8_t    | 0x00 (0)                             | value[50]
  +0x006B | 00                      | uint8_t    | 0x00 (0)                             | value[51]
  +0x006C | 00                      | uint8_t    | 0x00 (0)                             | value[52]
  +0x006D | 00                      | uint8_t    | 0x00 (0)                             | value[53]
  +0x006E | 00                      | uint8_t    | 0x00 (0)                             | value[54]
  +0x006F | 00                      | uint8_t    | 0x00 (0)                             | value[55]
  +0x0070 | 00                      | uint8_t    | 0x00 (0)                             | value[56]
  +0x0071 | 00                      | uint8_t    | 0x00 (0)                             | value[57]
  +0x0072 | 00                      | uint8_t    | 0x00 (0)                             | value[58]
  +0x0073 | 00                      | uint8_t    | 0x00 (0)                             | value[59]
  +0x0074 | 00                      | uint8_t    | 0x00 (0)                             | value[60]
  +0x0075 | 00                      | uint8_t    | 0x00 (0)                             | value[61]
  +0x0076 | 00                      | uint8_t    | 0x00 (0)                             | value[62]
  +0x0077 | 00                      | uint8_t    | 0x00 (0)                             | value[63]
  +0x0078 | 00                      | uint8_t    | 0x00 (0)                             | value[64]
  +0x0079 | 00                      | uint8_t    | 0x00 (0)                             | value[65]
  +0x007A | 00                      | uint8_t    | 0x00 (0)                             | value[66]
  +0x007B | 00                      | uint8_t    | 0x00 (0)                             | value[67]
  +0x007C | 00                      | uint8_t    | 0x00 (0)                             | value[68]
  +0x007D | 00                      | uint8_t    | 0x00 (0)                             | value[69]
  +0x007E | 00                      | uint8_t    | 0x00 (0)                             | value[70]
  +0x007F | 00                      | uint8_t    | 0x00 (0)                             | value[71]
  +0x0080 | 00                      | uint8_t    | 0x00 (0)                             | value[72]
  +0x0081 | 00                      | uint8_t    | 0x00 (0)                             | value[73]
  +0x0082 | 00                      | uint8_t    | 0x00 (0)                             | value[74]
  +0x0083 | 00                      | uint8_t    | 0x00 (0)                             | value[75]
  +0x0084 | 00                      | uint8_t    | 0x00 (0)                             | value[76]
  +0x0085 | 00                      | uint8_t    | 0x00 (0)                             | value[77]
  +0x0086 | 00                      | uint8_t    | 0x00 (0)                             | value[78]
  +0x0087 | 00                      | uint8_t    | 0x00 (0)                             | value[79]
  +0x0088 | 00                      | uint8_t    | 0x00 (0)                             | value[80]
  +0x0089 | 00                      | uint8_t    | 0x00 (0)                             | value[81]
  +0x008A | 00                      | uint8_t    | 0x00 (0)                             | value[82]
  +0x008B | 00                      | uint8_t    | 0x00 (0)                             | value[83]
  +0x008C | 00                      | uint8_t    | 0x00 (0)                             | value[84]
  +0x008D | 00                      | uint8_t    | 0x00 (0)                             | value[85]
  +0x008E | 00                      | uint8_t    | 0x00 (0)                             | value[86]
  +0x008F | 00                      | uint8_t    | 0x00 (0)                             | value[87]
  +0x0090 | 00                      | uint8_t    | 0x00 (0)                             | value[88]
  +0x0091 | 00                      | uint8_t    | 0x00 (0)                             | value[89]
  +0x0092 | 00                      | uint8_t    | 0x00 (0)                             | value[90]
  +0x0093 | 00                      | uint8_t    | 0x00 (0)                             | value[91]
  +0x0094 | 00                      | uint8_t    | 0x00 (0)                             | value[92]
  +0x0095 | 00                      | uint8_t    | 0x00 (0)                             | value[93]
  +0x0096 | 00                      | uint8_t    | 0x00 (0)                             | value[94]
  +0x0097 | 00                      | uint8_t    | 0x00 (0)                             | value[95]
  +0x0098 | 00                      | uint8_t    | 0x00 (0)                             | value[96]
  +0x0099 | 00                      | uint8_t    | 0x00 (0)                             | value[97]
  +0x009A | 00                      | uint8_t    | 0x00 (0)                             | value[98]
  +0x009B | 00                      | uint8_t    | 0x00 (0)                             | value[99]
  +0x009C | 00                      | uint8_t    | 0x00 (0)                             | value[100]
  +0x009D | 00                      | uint8_t    | 0x00 (0)                             | value[101]
  +0x009E | 00                      | uint8_t    | 0x00 (0)                             | value[102]
  +0x009F | 00                      | uint8_t    | 0x00 (0)                             | value[103]
  +0x00A0 | 00                      | uint8_t    | 0x00 (0)                             | value[104]
  +0x00A1 | 00                      | uint8_t    | 0x00 (0)                             | value[105]
  +0x00A2 | 00                      | uint8_t    | 0x00 (0)                             | value[106]
  +0x00A3 | 00                      | uint8_t    | 0x00 (0)                             | value[107]
  +0x00A4 | 00                      | uint8_t    | 0x00 (0)                             | value[108]
  +0x00A5 | 00                      | uint8_t    | 0x00 (0)                             | value[109]
  +0x00A6 | 00                      | uint8_t    | 0x00 (0)                             | value[110]
  +0x00A7 | 00                      | uint8_t    | 0x00 (0)                             | value[111]
  +0x00A8 | 00                      | uint8_t    | 0x00 (0)                             | value[112]
  +0x00A9 | 00                      | uint8_t    | 0x00 (0)                             | value[113]
  +0x00AA | 00                      | uint8_t    | 0x00 (0)                             | value[114]
  +0x00AB | 00                      | uint8_t    | 0x00 (0)                             | value[115]
  +0x00AC | 00                      | uint8_t    | 0x00 (0)                             | value[116]
  +0x00AD | 00                      | uint8_t    | 0x00 (0)                             | value[117]
  +0x00AE | 00                      | uint8_t    | 0x00 (0)                             | value[118]
  +0x00AF | 00                      | uint8_t    | 0x00 (0)                             | value[119]
  +0x00B0 | 00                      | uint8_t    | 0x00 (0)                             | value[120]
  +0x00B1 | 00                      | uint8_t    | 0x00 (0)                             | value[121]
  +0x00B2 | 00                      | uint8_t    | 0x00 (0)                             | value[122]
  +0x00B3 | 00                      | uint8_t    | 0x00 (0)                             | value[123]
  +0x00B4 | 00                      | uint8_t    | 0x00 (0)                             | value[124]
  +0x00B5 | 00                      | uint8_t    | 0x00 (0)                             | value[125]
  +0x00B6 | 00                      | uint8_t    | 0x00 (0)                             | value[126]
  +0x00B7 | 00                      | uint8_t    | 0x00 (0)                             | value[127]
  +0x00B8 | 00                      | uint8_t    | 0x00 (0)                             | value[128]
  +0x00B9 | 00                      | uint8_t    | 0x00 (0)                             | value[129]
  +0x00BA | 00                      | uint8_t    | 0x00 (0)                             | value[130]
  +0x00BB | 00                      | uint8_t    | 0x00 (0)                             | value[131]
  +0x00BC | 00                      | uint8_t    | 0x00 (0)                             | value[132]
  +0x00BD | 00                      | uint8_t    | 0x00 (0)                             | value[133]
  +0x00BE | 00                      | uint8_t    | 0x00 (0)                             | value[134]
  +0x00BF | 00                      | uint8_t    | 0x00 (0)                             | value[135]
  +0x00C0 | 00                      | uint8_t    | 0x00 (0)                             | value[136]
  +0x00C1 | 00                      | uint8_t    | 0x00 (0)                             | value[137]
  +0x00C2 | 00                      | uint8_t    | 0x00 (0)                             | value[138]
  +0x00C3 | 00                      | uint8_t    | 0x00 (0)                             | value[139]
  +0x00C4 | 00                      | uint8_t    | 0x00 (0)                             | value[140]
  +0x00C5 | 00                      | uint8_t    | 0x00 (0)                             | value[141]
  +0x00C6 | 00                      | uint8_t    | 0x00 (0)                             | value[142]
  +0x00C7 | 00                      | uint8_t    | 0x00 (0)                             | value[143]
  +0x00C8 | 00                      | uint8_t    | 0x00 (0)                             | value[144]
  +0x00C9 | 00                      | uint8_t    | 0x00 (0)                             | value[145]
  +0x00CA | 00                      | uint8_t    | 0x00 (0)                             | value[146]
  +0x00CB | 00                      | uint8_t    | 0x00 (0)                             | value[147]
  +0x00CC | 00                      | uint8_t    | 0x00 (0)                             | value[148]
  +0x00CD | 00                      | uint8_t    | 0x00 (0)                             | value[149]
  +0x00CE | 00                      | uint8_t    | 0x00 (0)                             | value[150]
  +0x00CF | 00                      | uint8_t    | 0x00 (0)                             | value[151]
  +0x00D0 | 00                      | uint8_t    | 0x00 (0)                             | value[152]
  +0x00D1 | 00                      | uint8_t    | 0x00 (0)                             | value[153]
  +0x00D2 | 00                      | uint8_t    | 0x00 (0)                             | value[154]
  +0x00D3 | 00                      | uint8_t    | 0x00 (0)                             | value[155]
  +0x00D4 | 00                      | uint8_t    | 0x00 (0)                             | value[156]
  +0x00D5 | 00                      | uint8_t    | 0x00 (0)                             | value[157]
  +0x00D6 | 00                      | uint8_t    | 0x00 (0)                             | value[158]
  +0x00D7 | 00                      | uint8_t    | 0x00 (0)                             | value[159]
  +0x00D8 | 00                      | uint8_t    | 0x00 (0)                             | value[160]
  +0x00D9 | 00                      | uint8_t    | 0x00 (0)                             | value[161]
  +0x00DA | 00                      | uint8_t    | 0x00 (0)                             | value[162]
  +0x00DB | 00                      | uint8_t    | 0x00 (0)                             | value[163]
  +0x00DC | 00                      | uint8_t    | 0x00 (0)                             | value[164]
  +0x00DD | 00                      | uint8_t    | 0x00 (0)                             | value[165]
  +0x00DE | 00                      | uint8_t    | 0x00 (0)                             | value[166]
  +0x00DF | 00                      | uint8_t    | 0x00 (0)                             | value[167]
  +0x00E0 | 00                      | uint8_t    | 0x00 (0)                             | value[168]
  +0x00E1 | 00                      | uint8_t    | 0x00 (0)                             | value[169]
  +0x00E2 | 00                      | uint8_t    | 0x00 (0)                             | value[170]
  +0x00E3 | 00                      | uint8_t    | 0x00 (0)                             | value[171]
  +0x00E4 | 00                      | uint8_t    | 0x00 (0)                             | value[172]
  +0x00E5 | 00                      | uint8_t    | 0x00 (0)                             | value[173]
  +0x00E6 | 00                      | uint8_t    | 0x00 (0)                             | value[174]
  +0x00E7 | 00                      | uint8_t    | 0x00 (0)                             | value[175]
  +0x00E8 | 00                      | uint8_t    | 0x00 (0)                             | value[176]
  +0x00E9 | 00                      | uint8_t    | 0x00 (0)                             | value[177]
  +0x00EA | 00                      | uint8_t    | 0x00 (0)                             | value[178]
  +0x00EB | 00                      | uint8_t    | 0x00 (0)                             | value[179]
  +0x00EC | 00                      | uint8_t    | 0x00 (0)                             | value[180]
  +0x00ED | 00                      | uint8_t    | 0x00 (0)                             | value[181]
  +0x00EE | 00                      | uint8_t    | 0x00 (0)                             | value[182]
  +0x00EF | 00                      | uint8_t    | 0x00 (0)                             | value[183]
  +0x00F0 | 00                      | uint8_t    | 0x00 (0)                             | value[184]
  +0x00F1 | 00                      | uint8_t    | 0x00 (0)                             | value[185]
  +0x00F2 | 00                      | uint8_t    | 0x00 (0)                             | value[186]
  +0x00F3 | 00                      | uint8_t    | 0x00 (0)                             | value[187]
  +0x00F4 | 00                      | uint8_t    | 0x00 (0)                             | value[188]
  +0x00F5 | 00                      | uint8_t    | 0x00 (0)                             | value[189]
  +0x00F6 | 00                      | uint8_t    | 0x00 (0)                             | value[190]
  +0x00F7 | 00                      | uint8_t    | 0x00 (0)                             | value[191]
  +0x00F8 | 00                      | uint8_t    | 0x00 (0)                             | value[192]
  +0x00F9 | 00                      | uint8_t    | 0x00 (0)                             | value[193]
  +0x00FA | 00                      | uint8_t    | 0x00 (0)                             | value[194]
  +0x00FB | 00                      | uint8_t    | 0x00 (0)                             | value[195]
  +0x00FC | 00                      | uint8_t    | 0x00 (0)                             | value[196]
  +0x00FD | 00                      | uint8_t    | 0x00 (0)                             | value[197]
  +0x00FE | 00                      | uint8_t    | 0x00 (0)                             | value[198]
  +0x00FF | 00                      | uint8_t    | 0x00 (0)                             | value[199]

padding:
  +0x0100 | 00 00 00 00             | uint8_t[4] | ....                                 | padding

string (RootTable.far_string):
  +0x0104 | 0F 00 00 00             | uint32_t   | 0x0000000F (15)                      | length of string
  +0x0108 | 73 6F 6D 65 20 66 61 72 | char[15]   | some far                             | string literal
  +0x0110 | 20 73 74 72 69 6E 67    |            |  string
  +0x0117 | 00                      | char       | 0x00 (0)                             | string terminator

vector (RootTable.far_vector):
  +0x0118 | 64 00 00 00             | uint32_t   | 0x00000064 (100)                     | length of vector (# items)
  +0x011C | 00                      | uint8_t    | 0x00 (0)                             | value[0]
  +0x011D | 00                      | uint8_t    | 0x00 (0)                             | value[1]
  +0x011E | 00                      | uint8_t    | 0x00 (0)                             | value[2]
  +0x011F | 00                      | uint8_t    | 0x00 (0)                             | value[3]
  +0x0120 | 00                      | uint8_t    | 0x00 (0)                             | value[4]
  +0x0121 | 00                      | uint8_t    | 0x00 (0)                             | value[5]
  +0x0122 | 00                      | uint8_t    | 0x00 (0)                             | value[6]
  +0x0123 | 00                      | uint8_t    | 0x00 (0)                             | value[7]
  +0x0124 | 00                      | uint8_t    | 0x00 (0)                             | value[8]
  +0x0125 | 00                      | uint8_t    | 0x00 (0)                             | value[9]
  +0x0126 | 00                      | uint8_t    | 0x00 (0)                             | value[10]
  +0x0127 | 00                      | uint8_t    | 0x00 (0)                             | value[11]
  +0x0128 | 00                      | uint8_t    | 0x00 (0)                             | value[12]
  +0x0129 | 00                      | uint8_t    | 0x00 (0)                             | value[13]
  +0x012A | 00                      | uint8_t    | 0x00 (0)                             | value[14]
  +0x012B | 00                      | uint8_t    | 0x00 (0)                             | value[15]
  +0x012C | 00                      | uint8_t    | 0x00 (0)                             | value[16]
  +0x012D | 00                      | uint8_t    | 0x00 (0)                             | value[17]
  +0x012E | 00                      | uint8_t    | 0x00 (0)                             | value[18]
  +0x012F | 00                      | uint8_t    | 0x00 (0)                             | value[19]
  +0x0130 | 00                      | uint8_t    | 0x00 (0)                             | value[20]
  +0x0131 | 00                      | uint8_t    | 0x00 (0)                             | value[21]
  +0x0132 | 00                      | uint8_t    | 0x00 (0)                             | value[22]
  +0x0133 | 00                      | uint8_t    | 0x00 (0)                             | value[23]
  +0x0134 | 00                      | uint8_t    | 0x00 (0)                             | value[24]
  +0x0135 | 00                      | uint8_t    | 0x00 (0)                             | value[25]
  +0x0136 | 00                      | uint8_t    | 0x00 (0)                             | value[26]
  +0x0137 | 00                      | uint8_t    | 0x00 (0)                             | value[27]
  +0x0138 | 00                      | uint8_t    | 0x00 (0)                             | value[28]
  +0x0139 | 00                      | uint8_t    | 0x00 (0)                             | value[29]
  +0x013A | 00                      | uint8_t    | 0x00 (0)                             | value[30]
  +0x013B | 00                      | uint8_t    | 0x00 (0)                             | value[31]
  +0x013C | 00                      | uint8_t    | 0x00 (0)                             | value[32]
  +0x013D | 00                      | uint8_t    | 0x00 (0)                             | value[33]
  +0x013E | 00                      | uint8_t    | 0x00 (0)                             | value[34]
  +0x013F | 00                      | uint8_t    | 0x00 (0)                             | value[35]
  +0x0140 | 00                      | uint8_t    | 0x00 (0)                             | value[36]
  +0x0141 | 00                      | uint8_t    | 0x00 (0)                             | value[37]
  +0x0142 | 00                      | uint8_t    | 0x00 (0)                             | value[38]
  +0x0143 | 00                      | uint8_t    | 0x00 (0)                             | value[39]
  +0x0144 | 00                      | uint8_t    | 0x00 (0)                             | value[40]
  +0x0145 | 00                      | uint8_t    | 0x00 (0)                             | value[41]
  +0x0146 | 00                      | uint8_t    | 0x00 (0)                             | value[42]
  +0x0147 | 00                      | uint8_t    | 0x00 (0)                             | value[43]
  +0x0148 | 00                      | uint8_t    | 0x00 (0)                             | value[44]
  +0x0149 | 00                      | uint8_t    | 0x00 (0)                             | value[45]
  +0x014A | 00                      | uint8_t    | 0x00 (0)                             | value[46]
  +0x014B | 00                      | uint8_t    | 0x00 (0)                             | value[47]
  +0x014C | 00                      | uint8_t    | 0x00 (0)                             | value[48]
  +0x014D | 00                      | uint8_t    | 0x00 (0)                             | value[49]
  +0x014E | 00                      | uint8_t    | 0x00 (0)                             | value[50]
  +0x014F | 00                      | uint8_t    | 0x00 (0)                             | value[51]
  +0x0150 | 00                      | uint8_t    | 0x00 (0)                             | value[52]
  +0x0151 | 00                      | uint8_t    | 0x00 (0)                             | value[53]
  +0x0152 | 00                      | uint8_t    | 0x00 (0)                             | value[54]
  +0x0153 | 00                      | uint8_t    | 0x00 (0)                             | value[55]
  +0x0154 | 00                      | uint8_t    | 0x00 (0)                             | value[56]
  +0x0155 | 00                      | uint8_t    | 0x00 (0)                             | value[57]
  +0x0156 | 00                      | uint8_t    | 0x00 (0)                             | value[58]
  +0x0157 | 00                      | uint8_t    | 0x00 (0)                             | value[59]
  +0x0158 | 00                      | uint8_t    | 0x00 (0)                             | value[60]
  +0x0159 | 00                      | uint8_t    | 0x00 (0)                             | value[61]
  +0x015A | 00                      | uint8_t    | 0x00 (0)                             | value[62]
  +0x015B | 00                      | uint8_t    | 0x00 (0)                             | value[63]
  +0x015C | 00                      | uint8_t    | 0x00 (0)                             | value[64]
  +0x015D | 00                      | uint8_t    | 0x00 (0)                             | value[65]
  +0x015E | 00                      | uint8_t    | 0x00 (0)                             | value[66]
  +0x015F | 00                      | uint8_t    | 0x00 (0)                             | value[67]
  +0x0160 | 00                      | uint8_t    | 0x00 (0)                             | value[68]
  +0x0161 | 00                      | uint8_t    | 0x00 (0)                             | value[69]
  +0x0162 | 00                      | uint8_t    | 0x00 (0)                             | value[70]
  +0x0163 | 00                      | uint8_t    | 0x00 (0)                             | value[71]
  +0x0164 | 00                      | uint8_t    | 0x00 (0)                             | value[72]
  +0x0165 | 00                      | uint8_t    | 0x00 (0)                             | value[73]
  +0x0166 | 00                      | uint8_t    | 0x00 (0)                             | value[74]
  +0x0167 | 00                      | uint8_t    | 0x00 (0)                             | value[75]
  +0x0168 | 00                      | uint8_t    | 0x00 (0)                             | value[76]
  +0x0169 | 00                      | uint8_t    | 0x00 (0)                             | value[77]
  +0x016A | 00                      | uint8_t    | 0x00 (0)                             | value[78]
  +0x016B | 00                      | uint8_t    | 0x00 (0)                             | value[79]
  +0x016C | 00                      | uint8_t    | 0x00 (0)                             | value[80]
  +0x016D | 00                      | uint8_t    | 0x00 (0)                             | value[81]
  +0x016E | 00                      | uint8_t    | 0x00 (0)                             | value[82]
  +0x016F | 00                      | uint8_t    | 0x00 (0)                             | value[83]
  +0x0170 | 00                      | uint8_t    | 0x00 (0)                             | value[84]
  +0x0171 | 00                      | uint8_t    | 0x00 (0)                             | value[85]
  +0x0172 | 00                      | uint8_t    | 0x00 (0)                             | value[86]
  +0x0173 | 00                      | uint8_t    | 0x00 (0)                             | value[87]
  +0x0174 | 00                      | uint8_t    | 0x00 (0)                             | value[88]
  +0x0175 | 00                      | uint8_t    | 0x00 (0)                             | value[89]
  +0x0176 | 00                      | uint8_t    | 0x00 (0)                             | value[90]
  +0x0177 | 00                      | uint8_t    | 0x00 (0)                             | value[91]
  +0x0178 | 00                      | uint8_t    | 0x00 (0)                             | value[92]
  +0x0179 | 00                      | uint8_t    | 0x00 (0)                             | value[93]
  +0x017A | 00                      | uint8_t    | 0x00 (0)                             | value[94]
  +0x017B | 00                      | uint8_t    | 0x00 (0)                             | value[95]
  +0x017C | 00                      | uint8_t    | 0x00 (0)                             | value[96]
  +0x017D | 00                      | uint8_t    | 0x00 (0)                             | value[97]
  +0x017E | 00                      | uint8_t    | 0x00 (0)                             | value[98]
  +0x017F | 00                      | uint8_t    | 0x00 (0)                             | value[99]
