// Annotated Flatbuffer Binary
//
// Schema file: tests/64bit/test_64bit.fbs
// Binary file: tests/64bit/offset64_test_cpp.bin

header:
  +0x00 | 14 00 00 00             | UOffset32  | 0x00000014 (20) Loc: 0x14         | offset to root table `RootTable`

padding:
  +0x04 | 00 00                   | uint8_t[2] | ..                                | padding

vtable (RootTable):
  +0x06 | 0E 00                   | uint16_t   | 0x000E (14)                       | size of this vtable
  +0x08 | 24 00                   | uint16_t   | 0x0024 (36)                       | size of referring table
  +0x0A | 04 00                   | VOffset16  | 0x0004 (4)                        | offset to field `far_vector` (id: 0)
  +0x0C | 00 00                   | VOffset16  | 0x0000 (0)                        | offset to field `a` (id: 1) <defaults to 0> (Int)
  +0x0E | 0C 00                   | VOffset16  | 0x000C (12)                       | offset to field `far_string` (id: 2)
  +0x10 | 1C 00                   | VOffset16  | 0x001C (28)                       | offset to field `big_vector` (id: 3)
  +0x12 | 18 00                   | VOffset16  | 0x0018 (24)                       | offset to field `near_string` (id: 4)

root_table (RootTable):
  +0x14 | 0E 00 00 00             | SOffset32  | 0x0000000E (14) Loc: 0x06         | offset to vtable
  +0x18 | 60 00 00 00 00 00 00 00 | UOffset64  | 0x0000000000000060 (96) Loc: 0x78 | offset to field `far_vector` (vector)
  +0x20 | 44 00 00 00 00 00 00 00 | UOffset64  | 0x0000000000000044 (68) Loc: 0x64 | offset to field `far_string` (string)
  +0x28 | 00 00 00 00             | uint8_t[4] | ....                              | padding
  +0x2C | 0C 00 00 00             | UOffset32  | 0x0000000C (12) Loc: 0x38         | offset to field `near_string` (string)
  +0x30 | 20 00 00 00 00 00 00 00 | UOffset64  | 0x0000000000000020 (32) Loc: 0x50 | offset to field `big_vector` (vector64)

string (RootTable.near_string):
  +0x38 | 10 00 00 00             | uint32_t   | 0x00000010 (16)                   | length of string
  +0x3C | 73 6F 6D 65 20 6E 65 61 | char[16]   | some nea                          | string literal
  +0x44 | 72 20 73 74 72 69 6E 67 |            | r string
  +0x4C | 00                      | char       | 0x00 (0)                          | string terminator

padding:
  +0x4D | 00 00 00                | uint8_t[3] | ...                               | padding

vector64 (RootTable.big_vector):
  +0x50 | 08 00 00 00 00 00 00 00 | uint64_t   | 0x0000000000000008 (8)            | length of vector (# items)
  +0x58 | 00                      | uint8_t    | 0x00 (0)                          | value[0]
  <6 regions omitted>
  +0x5F | 00                      | uint8_t    | 0x00 (0)                          | value[7]

padding:
  +0x60 | 00 00 00 00             | uint8_t[4] | ....                              | padding

string (RootTable.far_string):
  +0x64 | 0F 00 00 00             | uint32_t   | 0x0000000F (15)                   | length of string
  +0x68 | 73 6F 6D 65 20 66 61 72 | char[15]   | some far                          | string literal
  +0x70 | 20 73 74 72 69 6E 67    |            |  string
  +0x77 | 00                      | char       | 0x00 (0)                          | string terminator

vector (RootTable.far_vector):
  +0x78 | 04 00 00 00             | uint32_t   | 0x00000004 (4)                    | length of vector (# items)
  +0x7C | 00                      | uint8_t    | 0x00 (0)                          | value[0]
  <2 regions omitted>
  +0x7F | 00                      | uint8_t    | 0x00 (0)                          | value[3]
