// Annotated Flatbuffer Binary
//
// Schema file: tests/64bit/test_64bit.fbs
// Binary file: tests/64bit/offset64_test_cpp.bin

header:
  +0x000000 | 14 00 00 00             | UOffset32  | 0x00000014 (20) Loc: 0x000014              | offset to root table `RootTable`

padding:
  +0x000004 | 00 00 00 00             | uint8_t[4] | ....                                       | padding

vtable (RootTable):
  +0x000008 | 0C 00                   | uint16_t   | 0x000C (12)                                | size of this vtable
  +0x00000A | 1C 00                   | uint16_t   | 0x001C (28)                                | size of referring table
  +0x00000C | 14 00                   | VOffset16  | 0x0014 (20)                                | offset to field `far_vector` (id: 0)
  +0x00000E | 00 00                   | VOffset16  | 0x0000 (0)                                 | offset to field `a` (id: 1) <defaults to 0> (Int)
  +0x000010 | 0C 00                   | VOffset16  | 0x000C (12)                                | offset to field `far_string` (id: 2)
  +0x000012 | 04 00                   | VOffset16  | 0x0004 (4)                                 | offset to field `big_vector` (id: 3)

root_table (RootTable):
  +0x000014 | 0C 00 00 00             | SOffset32  | 0x0000000C (12) Loc: 0x000008              | offset to vtable
  +0x000018 | 18 00 00 00 00 00 00 00 | UOffset64  | 0x0000000000000018 (24) Loc: 0x000030      | offset to field `big_vector` (vector64)
  +0x000020 | 18 00 20 00 00 00 00 00 | UOffset64  | 0x0000000000200018 (2097176) Loc: 0x200038 | offset to field `far_string` (string)
  +0x000028 | 24 00 20 00 00 00 00 00 | UOffset64  | 0x0000000000200024 (2097188) Loc: 0x20004C | offset to field `far_vector` (vector)

vector64 (RootTable.big_vector):
  +0x000030 | 00 00 20 00 00 00 00 00 | uint64_t   | 0x0000000000200000 (2097152)               | length of vector (# items)
  +0x000038 | 00                      | uint8_t    | 0x00 (0)                                   | value[0]
  <2097150 regions omitted>
  +0x200037 | 00                      | uint8_t    | 0x00 (0)                                   | value[2097151]

string (RootTable.far_string):
  +0x200038 | 0F 00 00 00             | uint32_t   | 0x0000000F (15)                            | length of string
  +0x20003C | 73 6F 6D 65 20 66 61 72 | char[15]   | some far                                   | string literal
  +0x200044 | 20 73 74 72 69 6E 67    |            |  string
  +0x20004B | 00                      | char       | 0x00 (0)                                   | string terminator

vector (RootTable.far_vector):
  +0x20004C | 00 00 10 00             | uint32_t   | 0x00100000 (1048576)                       | length of vector (# items)
  +0x200050 | 00                      | uint8_t    | 0x00 (0)                                   | value[0]
  <1048574 regions omitted>
  +0x30004F | 00                      | uint8_t    | 0x00 (0)                                   | value[1048575]
