// Annotated Flatbuffer Binary
//
// Schema file: tests/64bit/test_64bit.fbs
// Binary file: tests/64bit/offset64_test_cpp.bin

header:
  +0x0000 | 14 00 00 00             | UOffset32  | 0x00000014 (20) Loc: 0x0014          | offset to root table `RootTable`

padding:
  +0x0004 | 00 00 00 00             | uint8_t[4] | ....                                 | padding

vtable (RootTable):
  +0x0008 | 0C 00                   | uint16_t   | 0x000C (12)                          | size of this vtable
  +0x000A | 1C 00                   | uint16_t   | 0x001C (28)                          | size of referring table
  +0x000C | 14 00                   | VOffset16  | 0x0014 (20)                          | offset to field `far_vector` (id: 0)
  +0x000E | 00 00                   | VOffset16  | 0x0000 (0)                           | offset to field `a` (id: 1) <defaults to 0> (Int)
  +0x0010 | 0C 00                   | VOffset16  | 0x000C (12)                          | offset to field `far_string` (id: 2)
  +0x0012 | 04 00                   | VOffset16  | 0x0004 (4)                           | offset to field `big_vector` (id: 3)

root_table (RootTable):
  +0x0014 | 0C 00 00 00             | SOffset32  | 0x0000000C (12) Loc: 0x0008          | offset to vtable
  +0x0018 | 18 00 00 00 00 00 00 00 | UOffset64  | 0x0000000000000018 (24) Loc: 0x0030  | offset to field `big_vector` (vector64)
  +0x0020 | E4 00 00 00 00 00 00 00 | UOffset64  | 0x00000000000000E4 (228) Loc: 0x0104 | offset to field `far_string` (string)
  +0x0028 | F0 00 00 00 00 00 00 00 | UOffset64  | 0x00000000000000F0 (240) Loc: 0x0118 | offset to field `far_vector` (vector)

vector64 (RootTable.big_vector):
  +0x0030 | C8 00 00 00 00 00 00 00 | uint64_t   | 0x00000000000000C8 (200)             | length of vector (# items)
  +0x0038 | 00                      | uint8_t    | 0x00 (0)                             | value[0]
  <199 regions omitted>
  +0x00FF | 00                      | uint8_t    | 0x00 (0)                             | value[199]

padding:
  +0x0100 | 00 00 00 00             | uint8_t[4] | ....                                 | padding

string (RootTable.far_string):
  +0x0104 | 0F 00 00 00             | uint32_t   | 0x0000000F (15)                      | length of string
  +0x0108 | 73 6F 6D 65 20 66 61 72 | char[15]   | some far                             | string literal
  +0x0110 | 20 73 74 72 69 6E 67    |            |  string
  +0x0117 | 00                      | char       | 0x00 (0)                             | string terminator

vector (RootTable.far_vector):
  +0x0118 | 64 00 00 00             | uint32_t   | 0x00000064 (100)                     | length of vector (# items)
  +0x011C | 00                      | uint8_t    | 0x00 (0)                             | value[0]
  <99 regions omitted>
  +0x017F | 00                      | uint8_t    | 0x00 (0)                             | value[99]
