// Annotated Flatbuffer Binary
//
// Schema file: tests/64bit/test_64bit.fbs
// Binary file: tests/64bit/test_64bit.bin

header:
  +0x00 | 14 00 00 00             | UOffset32  | 0x00000014 (20) Loc: 0x14         | offset to root table `RootTable`

padding:
  +0x04 | 00 00 00 00             | uint8_t[4] | ....                              | padding

vtable (RootTable):
  +0x08 | 0C 00                   | uint16_t   | 0x000C (12)                       | size of this vtable
  +0x0A | 24 00                   | uint16_t   | 0x0024 (36)                       | size of referring table
  +0x0C | 04 00                   | VOffset16  | 0x0004 (4)                        | offset to field `big_vector` (id: 0)
  +0x0E | 10 00                   | VOffset16  | 0x0010 (16)                       | offset to field `a` (id: 1)
  +0x10 | 14 00                   | VOffset16  | 0x0014 (20)                       | offset to field `big_string` (id: 2)
  +0x12 | 1C 00                   | VOffset16  | 0x001C (28)                       | offset to field `vector_64` (id: 3)

root_table (RootTable):
  +0x14 | 0C 00 00 00             | SOffset32  | 0x0000000C (12) Loc: 0x08         | offset to vtable
  +0x18 | 60 00 00 00 00 00 00 00 | UOffset64  | 0x0000000000000060 (96) Loc: 0x78 | offset to field `big_vector` (vector)
  +0x20 | 00 00 00 00             | uint8_t[4] | ....                              | padding
  +0x24 | D2 04 00 00             | uint32_t   | 0x000004D2 (1234)                 | table field `a` (Int)
  +0x28 | 1C 00 00 00 00 00 00 00 | UOffset64  | 0x000000000000001C (28) Loc: 0x44 | offset to field `big_string` (string)
  +0x30 | 08 00 00 00 00 00 00 00 | UOffset64  | 0x0000000000000008 (8) Loc: 0x38  | offset to field `vector_64` (vector64)

vector64 (RootTable.vector_64):
  +0x38 | 04 00 00 00 00 00 00 00 | uint64_t   | 0x0000000000000004 (4)            | length of vector (# items)
  +0x40 | 05                      | uint8_t    | 0x05 (5)                          | value[0]
  +0x41 | 06                      | uint8_t    | 0x06 (6)                          | value[1]
  +0x42 | 07                      | uint8_t    | 0x07 (7)                          | value[2]
  +0x43 | 08                      | uint8_t    | 0x08 (8)                          | value[3]

string (RootTable.big_string):
  +0x44 | 2E 00 00 00             | uint32_t   | 0x0000002E (46)                   | length of string
  +0x48 | 74 68 69 73 20 69 73 20 | char[46]   | this is                           | string literal
  +0x50 | 61 20 62 69 67 20 73 74 |            | a big st
  +0x58 | 72 69 6E 67 20 77 68 69 |            | ring whi
  +0x60 | 63 68 20 68 61 73 20 61 |            | ch has a
  +0x68 | 20 36 34 2D 62 69 74 20 |            |  64-bit 
  +0x70 | 6F 66 66 73 65 74       |            | offset
  +0x76 | 00                      | char       | 0x00 (0)                          | string terminator

vector (RootTable.big_vector):
  +0x78 | 03 00 00 00             | uint32_t   | 0x00000003 (3)                    | length of vector (# items)
  +0x7C | 01                      | uint8_t    | 0x01 (1)                          | value[0]
  +0x7D | 02                      | uint8_t    | 0x02 (2)                          | value[1]
  +0x7E | 03                      | uint8_t    | 0x03 (3)                          | value[2]
